; Function Attrs: nounwind uwtable
define ptr @l___private_Lean_Elab_PreDefinition_WF_Fix_0__Lean_Elab_WF_replaceRecApps_processApp(ptr noundef %0, ptr noundef %1, ptr noundef %2, ptr noundef %3, ptr noundef %4, ptr noundef %5, ptr noundef %6, ptr noundef %7, ptr noundef %8, ptr noundef %9, ptr noundef %10, ptr noundef %11) local_unnamed_addr #1 {
  %13 = tail call zeroext i8 @l_Lean_Expr_isAppOf(ptr noundef %3, ptr noundef %0) #5
  %14 = icmp eq i8 %13, 0
  br i1 %14, label %15, label %43

15:                                               ; preds = %12
  %16 = tail call ptr @l___private_Lean_Expr_0__Lean_Expr_getAppNumArgsAux(ptr noundef %3, ptr noundef nonnull inttoptr (i64 1 to ptr)) #5
  %17 = load ptr, ptr @l___private_Lean_Elab_PreDefinition_WF_Fix_0__Lean_Elab_WF_replaceRecApps_processRec___closed__1, align 8, !tbaa !12
  %18 = ptrtoint ptr %16 to i64
  %19 = and i64 %18, 1
  %.not = icmp eq i64 %19, 0
  br i1 %.not, label %20, label %26

20:                                               ; preds = %15
  %.val.i = load i32, ptr %16, align 4, !tbaa !8
  %21 = icmp sgt i32 %.val.i, 0
  br i1 %21, label %22, label %24, !prof !11

22:                                               ; preds = %20
  %23 = add nuw i32 %.val.i, 1
  store i32 %23, ptr %16, align 4, !tbaa !8
  br label %32

24:                                               ; preds = %20
  %.not.i39 = icmp eq i32 %.val.i, 0
  br i1 %.not.i39, label %32, label %25

25:                                               ; preds = %24
  tail call void @lean_inc_ref_cold(ptr noundef nonnull %16) #5
  br label %32

26:                                               ; preds = %15
  %27 = tail call ptr @lean_mk_array(ptr noundef %16, ptr noundef %17) #5
  %28 = icmp ult ptr %16, inttoptr (i64 2 to ptr)
  br i1 %28, label %lean_dec.exit, label %29

29:                                               ; preds = %26
  %30 = add i64 %18, -2
  %31 = inttoptr i64 %30 to ptr
  br label %lean_dec.exit

32:                                               ; preds = %25, %24, %22
  %33 = tail call ptr @lean_mk_array(ptr noundef nonnull %16, ptr noundef %17) #5
  %34 = tail call ptr @lean_nat_big_sub(ptr noundef nonnull %16, ptr noundef nonnull inttoptr (i64 3 to ptr)) #5
  %35 = load i32, ptr %16, align 4, !tbaa !8
  %36 = icmp sgt i32 %35, 1
  br i1 %36, label %37, label %39, !prof !11

37:                                               ; preds = %32
  %38 = add nsw i32 %35, -1
  store i32 %38, ptr %16, align 4, !tbaa !8
  br label %lean_dec.exit

39:                                               ; preds = %32
  %.not.i = icmp eq i32 %35, 0
  br i1 %.not.i, label %lean_dec.exit, label %40

40:                                               ; preds = %39
  tail call void @lean_dec_ref_cold(ptr noundef nonnull %16) #5
  br label %lean_dec.exit

lean_dec.exit:                                    ; preds = %29, %26, %40, %39, %37
  %.1.i41 = phi ptr [ %34, %37 ], [ %34, %39 ], [ %34, %40 ], [ inttoptr (i64 1 to ptr), %26 ], [ %31, %29 ]
  %41 = phi ptr [ %33, %37 ], [ %33, %39 ], [ %33, %40 ], [ %27, %26 ], [ %27, %29 ]
  %42 = tail call ptr @l_Lean_Expr_withAppAux___at___private_Lean_Elab_PreDefinition_WF_Fix_0__Lean_Elab_WF_replaceRecApps_processApp___spec__2(ptr noundef %0, ptr noundef %1, ptr noundef %2, ptr noundef %3, ptr noundef %41, ptr noundef %.1.i41, ptr noundef %4, ptr noundef %5, ptr noundef %6, ptr noundef %7, ptr noundef %8, ptr noundef %9, ptr noundef %10, ptr noundef %11)
  br label %45

43:                                               ; preds = %12
  %44 = tail call ptr @l___private_Lean_Elab_PreDefinition_WF_Fix_0__Lean_Elab_WF_replaceRecApps_processRec(ptr noundef %0, ptr noundef %1, ptr noundef %2, ptr noundef %3, ptr noundef %4, ptr noundef %5, ptr noundef %6, ptr noundef %7, ptr noundef %8, ptr noundef %9, ptr noundef %10, ptr noundef %11)
  br label %45

45:                                               ; preds = %43, %lean_dec.exit
  %.0 = phi ptr [ %42, %lean_dec.exit ], [ %44, %43 ]
  ret ptr %.0
}